target datalayout = "e-m:e-p270:32:32-p271:32:32-p272:64:64-i64:64-i128:128-f80:128-n8:16:32:64-S128"
target triple = "x86_64-pc-linux-gnu"

%struct.RTJpegContext = type { i32, i32, %struct.IDCTDSPContext, [64 x i8], [64 x i32], [64 x i32], [64 x i16] }
%struct.IDCTDSPContext = type { ptr, ptr, ptr, ptr, ptr, ptr, [64 x i8], i32, i32 }

@ff_zigzag_direct = external constant [64 x i8], align 16

; Function Attrs: nounwind uwtable
define void @ff_rtjpeg_init(ptr noundef %0, ptr noundef %1) #0 {
  %3 = alloca ptr, align 8
  %4 = alloca ptr, align 8
  %5 = alloca i32, align 4
  %6 = alloca i32, align 4
  store ptr %0, ptr %3, align 8, !tbaa !4
  store ptr %1, ptr %4, align 8, !tbaa !38
  call void @llvm.lifetime.start.p0(i64 4, ptr %5) #6
  %7 = load ptr, ptr %3, align 8, !tbaa !4
  %8 = getelementptr inbounds nuw %struct.RTJpegContext, ptr %7, i32 0, i32 2
  %9 = load ptr, ptr %4, align 8, !tbaa !38
  call void @ff_idctdsp_init(ptr noundef %8, ptr noundef %9)
  store i32 0, ptr %5, align 4, !tbaa !13
  br label %10

10:                                               ; preds = %37, %2
  %11 = load i32, ptr %5, align 4, !tbaa !13
  %12 = icmp slt i32 %11, 64
  br i1 %12, label %13, label %40

13:                                               ; preds = %10
  call void @llvm.lifetime.start.p0(i64 4, ptr %6) #6
  %14 = load i32, ptr %5, align 4, !tbaa !13
  %15 = sext i32 %14 to i64
  %16 = getelementptr inbounds [64 x i8], ptr @ff_zigzag_direct, i64 0, i64 %15
  %17 = load i8, ptr %16, align 1, !tbaa !29
  %18 = zext i8 %17 to i32
  store i32 %18, ptr %6, align 4, !tbaa !13
  %19 = load i32, ptr %6, align 4, !tbaa !13
  %20 = shl i32 %19, 3
  %21 = load i32, ptr %6, align 4, !tbaa !13
  %22 = ashr i32 %21, 3
  %23 = or i32 %20, %22
  %24 = and i32 %23, 63
  store i32 %24, ptr %6, align 4, !tbaa !13
  %25 = load ptr, ptr %3, align 8, !tbaa !4
  %26 = getelementptr inbounds nuw %struct.RTJpegContext, ptr %25, i32 0, i32 2
  %27 = getelementptr inbounds nuw %struct.IDCTDSPContext, ptr %26, i32 0, i32 6
  %28 = load i32, ptr %6, align 4, !tbaa !13
  %29 = sext i32 %28 to i64
  %30 = getelementptr inbounds [64 x i8], ptr %27, i64 0, i64 %29
  %31 = load i8, ptr %30, align 1, !tbaa !29
  %32 = load ptr, ptr %3, align 8, !tbaa !4
  %33 = getelementptr inbounds nuw %struct.RTJpegContext, ptr %32, i32 0, i32 3
  %34 = load i32, ptr %5, align 4, !tbaa !13
  %35 = sext i32 %34 to i64
  %36 = getelementptr inbounds [64 x i8], ptr %33, i64 0, i64 %35
  store i8 %31, ptr %36, align 1, !tbaa !29
  call void @llvm.lifetime.end.p0(i64 4, ptr %6) #6
  br label %37

37:                                               ; preds = %13
  %38 = load i32, ptr %5, align 4, !tbaa !13
  %39 = add nsw i32 %38, 1
  store i32 %39, ptr %5, align 4, !tbaa !13
  br label %10, !llvm.loop !40

40:                                               ; preds = %10
  call void @llvm.lifetime.end.p0(i64 4, ptr %5) #6
  ret void
}