; Function Attrs: nounwind uwtable
define void @ff_rtjpeg_init(ptr noundef %0, ptr noundef %1) local_unnamed_addr #0 {
  %3 = getelementptr inbounds nuw i8, ptr %0, i64 8
  tail call void @ff_idctdsp_init(ptr noundef nonnull %3, ptr noundef %1) #7
  %4 = getelementptr inbounds nuw i8, ptr %0, i64 56
  %5 = getelementptr inbounds nuw i8, ptr %0, i64 128
  br label %6

6:                                                ; preds = %2, %6
  %indvars.iv = phi i64 [ 0, %2 ], [ %indvars.iv.next, %6 ]
  %7 = getelementptr inbounds nuw [64 x i8], ptr @ff_zigzag_direct, i64 0, i64 %indvars.iv
  %8 = load i8, ptr %7, align 1, !tbaa !25
  %9 = zext i8 %8 to i32
  %10 = shl nuw nsw i32 %9, 3
  %11 = lshr i32 %9, 3
  %.masked = and i32 %10, 56
  %12 = or i32 %.masked, %11
  %13 = zext nneg i32 %12 to i64
  %14 = getelementptr inbounds nuw [64 x i8], ptr %4, i64 0, i64 %13
  %15 = load i8, ptr %14, align 1, !tbaa !25
  %16 = getelementptr inbounds nuw [64 x i8], ptr %5, i64 0, i64 %indvars.iv
  store i8 %15, ptr %16, align 1, !tbaa !25
  %indvars.iv.next = add nuw nsw i64 %indvars.iv, 1
  %exitcond.not = icmp eq i64 %indvars.iv.next, 64
  br i1 %exitcond.not, label %17, label %6, !llvm.loop !32

17:                                               ; preds = %6
  ret void
}